; Function Attrs: mustprogress nounwind uwtable
define void @_ZN19OpenColorIO_v2_4dev9Processor4Impl22setProcessorCacheFlagsENS_19ProcessorCacheFlagsE(ptr noundef nonnull align 8 dereferenceable(552) %this, i32 noundef %flags) local_unnamed_addr #4 align 2 personality ptr @__gxx_personality_v0 {
entry:
  %m_cacheFlags = getelementptr inbounds i8, ptr %this, i64 232
  store i32 %flags, ptr %m_cacheFlags, align 8
  %m_mutex.i = getelementptr inbounds i8, ptr %this, i64 256
  %call1.i.i.i.i = tail call noundef i32 @pthread_mutex_lock(ptr noundef nonnull %m_mutex.i) #22
  %tobool.not.i.i.i = icmp eq i32 %call1.i.i.i.i, 0
  br i1 %tobool.not.i.i.i, label %_ZN19OpenColorIO_v2_4dev12GenericCacheImSt10shared_ptrINS_9ProcessorEEE6enableEb.exit, label %if.then.i.i.i

if.then.i.i.i:                                    ; preds = %entry
  invoke void @_ZSt20__throw_system_errori(i32 noundef %call1.i.i.i.i) #24
          to label %.noexc.i unwind label %terminate.lpad.i

.noexc.i:                                         ; preds = %if.then.i.i.i
  unreachable

terminate.lpad.i:                                 ; preds = %if.then.i.i.i
  %0 = landingpad { ptr, i32 }
          catch ptr null
  %1 = extractvalue { ptr, i32 } %0, 0
  tail call void @__clang_call_terminate(ptr %1) #25
  unreachable

_ZN19OpenColorIO_v2_4dev12GenericCacheImSt10shared_ptrINS_9ProcessorEEE6enableEb.exit: ; preds = %entry
  %2 = trunc i32 %flags to i8
  %frombool.i = and i8 %2, 1
  %m_enabled.i = getelementptr inbounds i8, ptr %this, i64 249
  store i8 %frombool.i, ptr %m_enabled.i, align 1
  %call1.i.i.i1.i = tail call noundef i32 @pthread_mutex_unlock(ptr noundef nonnull %m_mutex.i) #22
  %m_mutex.i3 = getelementptr inbounds i8, ptr %this, i64 360
  %call1.i.i.i.i4 = tail call noundef i32 @pthread_mutex_lock(ptr noundef nonnull %m_mutex.i3) #22
  %tobool.not.i.i.i5 = icmp eq i32 %call1.i.i.i.i4, 0
  br i1 %tobool.not.i.i.i5, label %_ZN19OpenColorIO_v2_4dev12GenericCacheImSt10shared_ptrINS_12GPUProcessorEEE6enableEb.exit, label %if.then.i.i.i6

if.then.i.i.i6:                                   ; preds = %_ZN19OpenColorIO_v2_4dev12GenericCacheImSt10shared_ptrINS_9ProcessorEEE6enableEb.exit
  invoke void @_ZSt20__throw_system_errori(i32 noundef %call1.i.i.i.i4) #24
          to label %.noexc.i8 unwind label %terminate.lpad.i7

.noexc.i8:                                        ; preds = %if.then.i.i.i6
  unreachable

terminate.lpad.i7:                                ; preds = %if.then.i.i.i6
  %3 = landingpad { ptr, i32 }
          catch ptr null
  %4 = extractvalue { ptr, i32 } %3, 0
  tail call void @__clang_call_terminate(ptr %4) #25
  unreachable

_ZN19OpenColorIO_v2_4dev12GenericCacheImSt10shared_ptrINS_12GPUProcessorEEE6enableEb.exit: ; preds = %_ZN19OpenColorIO_v2_4dev12GenericCacheImSt10shared_ptrINS_9ProcessorEEE6enableEb.exit
  %m_enabled.i10 = getelementptr inbounds i8, ptr %this, i64 353
  store i8 %frombool.i, ptr %m_enabled.i10, align 1
  %call1.i.i.i1.i11 = tail call noundef i32 @pthread_mutex_unlock(ptr noundef nonnull %m_mutex.i3) #22
  %m_mutex.i12 = getelementptr inbounds i8, ptr %this, i64 464
  %call1.i.i.i.i13 = tail call noundef i32 @pthread_mutex_lock(ptr noundef nonnull %m_mutex.i12) #22
  %tobool.not.i.i.i14 = icmp eq i32 %call1.i.i.i.i13, 0
  br i1 %tobool.not.i.i.i14, label %_ZN19OpenColorIO_v2_4dev12GenericCacheImSt10shared_ptrINS_12CPUProcessorEEE6enableEb.exit, label %if.then.i.i.i15

if.then.i.i.i15:                                  ; preds = %_ZN19OpenColorIO_v2_4dev12GenericCacheImSt10shared_ptrINS_12GPUProcessorEEE6enableEb.exit
  invoke void @_ZSt20__throw_system_errori(i32 noundef %call1.i.i.i.i13) #24
          to label %.noexc.i17 unwind label %terminate.lpad.i16

.noexc.i17:                                       ; preds = %if.then.i.i.i15
  unreachable

terminate.lpad.i16:                               ; preds = %if.then.i.i.i15
  %5 = landingpad { ptr, i32 }
          catch ptr null
  %6 = extractvalue { ptr, i32 } %5, 0
  tail call void @__clang_call_terminate(ptr %6) #25
  unreachable

_ZN19OpenColorIO_v2_4dev12GenericCacheImSt10shared_ptrINS_12CPUProcessorEEE6enableEb.exit: ; preds = %_ZN19OpenColorIO_v2_4dev12GenericCacheImSt10shared_ptrINS_12GPUProcessorEEE6enableEb.exit
  %m_enabled.i19 = getelementptr inbounds i8, ptr %this, i64 457
  store i8 %frombool.i, ptr %m_enabled.i19, align 1
  %call1.i.i.i1.i20 = tail call noundef i32 @pthread_mutex_unlock(ptr noundef nonnull %m_mutex.i12) #22
  ret void
}